target datalayout = "e-m:e-p270:32:32-p271:32:32-p272:64:64-i64:64-i128:128-f80:128-n8:16:32:64-S128"
target triple = "x86_64-pc-linux-gnu"

%struct.dh_named_group_st = type { ptr, i32, i32, i32, ptr, ptr, ptr }

; Function Attrs: nounwind uwtable
define ptr @ossl_ffc_uid_to_dh_named_group(i32 noundef %0) #0 {
  %2 = alloca ptr, align 8
  %3 = alloca i32, align 4
  %4 = alloca i64, align 8
  %5 = alloca i32, align 4
  store i32 %0, ptr %3, align 4, !tbaa !16
  call void @llvm.lifetime.start.p0(i64 8, ptr %4) #3
  store i64 0, ptr %4, align 8, !tbaa !8
  br label %6

6:                                                ; preds = %20, %1
  %7 = load i64, ptr %4, align 8, !tbaa !8
  %8 = icmp ult i64 %7, 14
  br i1 %8, label %9, label %23

9:                                                ; preds = %6
  %10 = load i64, ptr %4, align 8, !tbaa !8
  %11 = getelementptr inbounds nuw [14 x %struct.dh_named_group_st], ptr @dh_named_groups, i64 0, i64 %10
  %12 = getelementptr inbounds nuw %struct.dh_named_group_st, ptr %11, i32 0, i32 1
  %13 = load i32, ptr %12, align 8, !tbaa !17
  %14 = load i32, ptr %3, align 4, !tbaa !16
  %15 = icmp eq i32 %13, %14
  br i1 %15, label %16, label %19

16:                                               ; preds = %9
  %17 = load i64, ptr %4, align 8, !tbaa !8
  %18 = getelementptr inbounds nuw [14 x %struct.dh_named_group_st], ptr @dh_named_groups, i64 0, i64 %17
  store ptr %18, ptr %2, align 8
  store i32 1, ptr %5, align 4
  br label %24

19:                                               ; preds = %9
  br label %20

20:                                               ; preds = %19
  %21 = load i64, ptr %4, align 8, !tbaa !8
  %22 = add i64 %21, 1
  store i64 %22, ptr %4, align 8, !tbaa !8
  br label %6, !llvm.loop !18

23:                                               ; preds = %6
  store ptr null, ptr %2, align 8
  store i32 1, ptr %5, align 4
  br label %24

24:                                               ; preds = %23, %16
  call void @llvm.lifetime.end.p0(i64 8, ptr %4) #3
  %25 = load ptr, ptr %2, align 8
  ret ptr %25
}