; Function Attrs: nofree norecurse nosync nounwind memory(none) uwtable
define ptr @ossl_ffc_uid_to_dh_named_group(i32 noundef %0) local_unnamed_addr #2 {
  br label %4

2:                                                ; preds = %4
  %3 = add nuw nsw i64 %.06, 1
  %exitcond.not = icmp eq i64 %3, 14
  br i1 %exitcond.not, label %9, label %4, !llvm.loop !13

4:                                                ; preds = %1, %2
  %.06 = phi i64 [ 0, %1 ], [ %3, %2 ]
  %5 = getelementptr inbounds nuw [14 x %struct.dh_named_group_st], ptr @dh_named_groups, i64 0, i64 %.06
  %6 = getelementptr inbounds nuw i8, ptr %5, i64 8
  %7 = load i32, ptr %6, align 8, !tbaa !14
  %8 = icmp eq i32 %7, %0
  br i1 %8, label %9, label %2

9:                                                ; preds = %2, %4
  %.05 = phi ptr [ %5, %4 ], [ null, %2 ]
  ret ptr %.05
}